target datalayout = "e-m:e-p270:32:32-p271:32:32-p272:64:64-i64:64-i128:128-f80:128-n8:16:32:64-S128"
target triple = "x86_64-pc-linux-gnu"

%struct.spawn_resp = type { i32, i32, ptr, i16, i32, ptr }

@.str = private unnamed_addr constant [8 x i8] c"spawn.c\00", align 1
@__func__.spawn_resp_unpack = private unnamed_addr constant [18 x i8] c"spawn_resp_unpack\00", align 1

; Function Attrs: nounwind uwtable
define dso_local void @spawn_resp_free(ptr noundef %0) #0 {
  %2 = alloca ptr, align 8
  store ptr %0, ptr %2, align 8
  %3 = load ptr, ptr %2, align 8
  %4 = icmp ne ptr %3, null
  br i1 %4, label %5, label %10

5:                                                ; preds = %1
  %6 = load ptr, ptr %2, align 8
  %7 = getelementptr inbounds nuw %struct.spawn_resp, ptr %6, i32 0, i32 2
  call void @slurm_xfree(ptr noundef %7)
  %8 = load ptr, ptr %2, align 8
  %9 = getelementptr inbounds nuw %struct.spawn_resp, ptr %8, i32 0, i32 5
  call void @slurm_xfree(ptr noundef %9)
  call void @slurm_xfree(ptr noundef %2)
  br label %10

10:                                               ; preds = %5, %1
  ret void
}

; Function Attrs: nounwind uwtable
define dso_local i32 @spawn_resp_unpack(ptr noundef %0, ptr noundef %1) #0 {
  %3 = alloca i32, align 4
  %4 = alloca ptr, align 8
  %5 = alloca ptr, align 8
  %6 = alloca ptr, align 8
  %7 = alloca i32, align 4
  %8 = alloca i32, align 4
  %9 = alloca i32, align 4
  %10 = alloca i64, align 8
  %11 = alloca i64, align 8
  store ptr %0, ptr %4, align 8
  store ptr %1, ptr %5, align 8
  call void @llvm.lifetime.start.p0(i64 8, ptr %6) #7
  store ptr null, ptr %6, align 8
  call void @llvm.lifetime.start.p0(i64 4, ptr %7) #7
  %12 = call ptr @slurm_xcalloc(i64 noundef 1, i64 noundef 32, i1 noundef zeroext true, i1 noundef zeroext false, ptr noundef @.str, i32 noundef 334, ptr noundef @__func__.spawn_resp_unpack)
  store ptr %12, ptr %6, align 8
  br label %13

13:                                               ; preds = %2
  %14 = load ptr, ptr %6, align 8
  %15 = getelementptr inbounds nuw %struct.spawn_resp, ptr %14, i32 0, i32 0
  %16 = load ptr, ptr %5, align 8
  %17 = call i32 @slurm_unpack32(ptr noundef %15, ptr noundef %16)
  %18 = icmp ne i32 %17, 0
  br i1 %18, label %19, label %20

19:                                               ; preds = %13
  br label %127

20:                                               ; preds = %13
  br label %21

21:                                               ; preds = %20
  br label %22

22:                                               ; preds = %21
  br label %23

23:                                               ; preds = %22
  %24 = load ptr, ptr %6, align 8
  %25 = getelementptr inbounds nuw %struct.spawn_resp, ptr %24, i32 0, i32 1
  %26 = load ptr, ptr %5, align 8
  %27 = call i32 @slurm_unpack32(ptr noundef %25, ptr noundef %26)
  %28 = icmp ne i32 %27, 0
  br i1 %28, label %29, label %30

29:                                               ; preds = %23
  br label %127

30:                                               ; preds = %23
  br label %31

31:                                               ; preds = %30
  br label %32

32:                                               ; preds = %31
  br label %33

33:                                               ; preds = %32
  %34 = load ptr, ptr %6, align 8
  %35 = getelementptr inbounds nuw %struct.spawn_resp, ptr %34, i32 0, i32 3
  %36 = load ptr, ptr %5, align 8
  %37 = call i32 @slurm_unpack16(ptr noundef %35, ptr noundef %36)
  %38 = icmp ne i32 %37, 0
  br i1 %38, label %39, label %40

39:                                               ; preds = %33
  br label %127

40:                                               ; preds = %33
  br label %41

41:                                               ; preds = %40
  br label %42

42:                                               ; preds = %41
  br label %43

43:                                               ; preds = %42
  call void @llvm.lifetime.start.p0(i64 4, ptr %8) #7
  %44 = load ptr, ptr %6, align 8
  %45 = getelementptr inbounds nuw %struct.spawn_resp, ptr %44, i32 0, i32 2
  %46 = load ptr, ptr %5, align 8
  %47 = call i32 @slurm_unpackstr_xmalloc_chooser(ptr noundef %45, ptr noundef %8, ptr noundef %46)
  %48 = icmp ne i32 %47, 0
  br i1 %48, label %49, label %50

49:                                               ; preds = %43
  store i32 4, ptr %9, align 4
  br label %51

50:                                               ; preds = %43
  store i32 0, ptr %9, align 4
  br label %51

51:                                               ; preds = %49, %50
  call void @llvm.lifetime.end.p0(i64 4, ptr %8) #7
  %52 = load i32, ptr %9, align 4
  switch i32 %52, label %129 [
    i32 0, label %53
    i32 4, label %127
  ]

53:                                               ; preds = %51
  br label %54

54:                                               ; preds = %53
  br label %55

55:                                               ; preds = %54
  br label %56

56:                                               ; preds = %55
  %57 = load ptr, ptr %6, align 8
  %58 = getelementptr inbounds nuw %struct.spawn_resp, ptr %57, i32 0, i32 4
  %59 = load ptr, ptr %5, align 8
  %60 = call i32 @slurm_unpack32(ptr noundef %58, ptr noundef %59)
  %61 = icmp ne i32 %60, 0
  br i1 %61, label %62, label %63

62:                                               ; preds = %56
  br label %127

63:                                               ; preds = %56
  br label %64

64:                                               ; preds = %63
  br label %65

65:                                               ; preds = %64
  %66 = load ptr, ptr %6, align 8
  %67 = getelementptr inbounds nuw %struct.spawn_resp, ptr %66, i32 0, i32 4
  %68 = load i32, ptr %67, align 4
  %69 = icmp ugt i32 %68, 0
  br i1 %69, label %70, label %124

70:                                               ; preds = %65
  br label %71

71:                                               ; preds = %70
  call void @llvm.lifetime.start.p0(i64 8, ptr %10) #7
  %72 = load ptr, ptr %6, align 8
  %73 = getelementptr inbounds nuw %struct.spawn_resp, ptr %72, i32 0, i32 4
  %74 = load i32, ptr %73, align 4
  %75 = zext i32 %74 to i64
  store i64 %75, ptr %10, align 8
  call void @llvm.lifetime.start.p0(i64 8, ptr %11) #7
  store i64 4, ptr %11, align 8
  %76 = load i64, ptr %10, align 8
  %77 = icmp ne i64 %76, 0
  br i1 %77, label %78, label %81

78:                                               ; preds = %71
  %79 = load i64, ptr %11, align 8
  %80 = icmp ne i64 %79, 0
  br i1 %80, label %84, label %81

81:                                               ; preds = %78, %71
  %82 = load ptr, ptr %6, align 8
  %83 = getelementptr inbounds nuw %struct.spawn_resp, ptr %82, i32 0, i32 5
  store ptr null, ptr %83, align 8
  br label %93

84:                                               ; preds = %78
  %85 = load i64, ptr %10, align 8
  %86 = load i64, ptr %11, align 8
  %87 = call ptr @slurm_xcalloc(i64 noundef %85, i64 noundef %86, i1 noundef zeroext true, i1 noundef zeroext true, ptr noundef @.str, i32 noundef 342, ptr noundef @__func__.spawn_resp_unpack)
  %88 = load ptr, ptr %6, align 8
  %89 = getelementptr inbounds nuw %struct.spawn_resp, ptr %88, i32 0, i32 5
  store ptr %87, ptr %89, align 8
  %90 = icmp ne ptr %87, null
  br i1 %90, label %92, label %91

91:                                               ; preds = %84
  store i32 4, ptr %9, align 4
  br label %94

92:                                               ; preds = %84
  br label %93

93:                                               ; preds = %92, %81
  store i32 0, ptr %9, align 4
  br label %94

94:                                               ; preds = %91, %93
  call void @llvm.lifetime.end.p0(i64 8, ptr %11) #7
  call void @llvm.lifetime.end.p0(i64 8, ptr %10) #7
  %95 = load i32, ptr %9, align 4
  switch i32 %95, label %129 [
    i32 0, label %96
    i32 4, label %127
  ]

96:                                               ; preds = %94
  br label %97

97:                                               ; preds = %96
  br label %98

98:                                               ; preds = %97
  store i32 0, ptr %7, align 4
  br label %99

99:                                               ; preds = %120, %98
  %100 = load i32, ptr %7, align 4
  %101 = load ptr, ptr %6, align 8
  %102 = getelementptr inbounds nuw %struct.spawn_resp, ptr %101, i32 0, i32 4
  %103 = load i32, ptr %102, align 4
  %104 = icmp ult i32 %100, %103
  br i1 %104, label %105, label %123

105:                                              ; preds = %99
  br label %106

106:                                              ; preds = %105
  %107 = load ptr, ptr %6, align 8
  %108 = getelementptr inbounds nuw %struct.spawn_resp, ptr %107, i32 0, i32 5
  %109 = load ptr, ptr %108, align 8
  %110 = load i32, ptr %7, align 4
  %111 = sext i32 %110 to i64
  %112 = getelementptr inbounds i32, ptr %109, i64 %111
  %113 = load ptr, ptr %5, align 8
  %114 = call i32 @slurm_unpack32(ptr noundef %112, ptr noundef %113)
  %115 = icmp ne i32 %114, 0
  br i1 %115, label %116, label %117

116:                                              ; preds = %106
  br label %127

117:                                              ; preds = %106
  br label %118

118:                                              ; preds = %117
  br label %119

119:                                              ; preds = %118
  br label %120

120:                                              ; preds = %119
  %121 = load i32, ptr %7, align 4
  %122 = add nsw i32 %121, 1
  store i32 %122, ptr %7, align 4
  br label %99, !llvm.loop !24

123:                                              ; preds = %99
  br label %124

124:                                              ; preds = %123, %65
  %125 = load ptr, ptr %6, align 8
  %126 = load ptr, ptr %4, align 8
  store ptr %125, ptr %126, align 8
  store i32 0, ptr %3, align 4
  store i32 1, ptr %9, align 4
  br label %129

127:                                              ; preds = %94, %51, %116, %62, %39, %29, %19
  %128 = load ptr, ptr %6, align 8
  call void @spawn_resp_free(ptr noundef %128)
  store i32 -1, ptr %3, align 4
  store i32 1, ptr %9, align 4
  br label %129

129:                                              ; preds = %127, %124, %94, %51
  call void @llvm.lifetime.end.p0(i64 4, ptr %7) #7
  call void @llvm.lifetime.end.p0(i64 8, ptr %6) #7
  %130 = load i32, ptr %3, align 4
  ret i32 %130
}