; Function Attrs: nounwind uwtable
define dso_local range(i32 -1, 1) i32 @spawn_resp_unpack(ptr noundef writeonly captures(none) %0, ptr noundef %1) local_unnamed_addr #0 {
  %3 = alloca ptr, align 8
  %4 = alloca i32, align 4
  %5 = tail call ptr @slurm_xcalloc(i64 noundef 1, i64 noundef 32, i1 noundef zeroext true, i1 noundef zeroext false, ptr noundef nonnull @.str, i32 noundef 334, ptr noundef nonnull @__func__.spawn_resp_unpack) #10
  %6 = tail call i32 @slurm_unpack32(ptr noundef %5, ptr noundef %1) #10
  %.not = icmp eq i32 %6, 0
  br i1 %.not, label %7, label %33

7:                                                ; preds = %2
  %8 = getelementptr inbounds nuw i8, ptr %5, i64 4
  %9 = tail call i32 @slurm_unpack32(ptr noundef nonnull %8, ptr noundef %1) #10
  %.not33 = icmp eq i32 %9, 0
  br i1 %.not33, label %10, label %.thread

10:                                               ; preds = %7
  %11 = getelementptr inbounds nuw i8, ptr %5, i64 16
  %12 = tail call i32 @slurm_unpack16(ptr noundef nonnull %11, ptr noundef %1) #10
  %.not34 = icmp eq i32 %12, 0
  br i1 %.not34, label %13, label %.thread

13:                                               ; preds = %10
  call void @llvm.lifetime.start.p0(i64 4, ptr nonnull %4) #10
  %14 = getelementptr inbounds nuw i8, ptr %5, i64 8
  %15 = call i32 @slurm_unpackstr_xmalloc_chooser(ptr noundef nonnull %14, ptr noundef nonnull %4, ptr noundef %1) #10
  %.not35 = icmp eq i32 %15, 0
  call void @llvm.lifetime.end.p0(i64 4, ptr nonnull %4) #10
  br i1 %.not35, label %16, label %.thread

16:                                               ; preds = %13
  %17 = getelementptr inbounds nuw i8, ptr %5, i64 20
  %18 = call i32 @slurm_unpack32(ptr noundef nonnull %17, ptr noundef %1) #10
  %.not36 = icmp eq i32 %18, 0
  br i1 %.not36, label %19, label %.thread

19:                                               ; preds = %16
  %20 = load i32, ptr %17, align 4
  %.not37 = icmp eq i32 %20, 0
  br i1 %.not37, label %.loopexit, label %21

21:                                               ; preds = %19
  %22 = zext i32 %20 to i64
  %23 = call ptr @slurm_xcalloc(i64 noundef %22, i64 noundef 4, i1 noundef zeroext true, i1 noundef zeroext true, ptr noundef nonnull @.str, i32 noundef 342, ptr noundef nonnull @__func__.spawn_resp_unpack) #10
  %24 = getelementptr inbounds nuw i8, ptr %5, i64 24
  store ptr %23, ptr %24, align 8
  %.not38 = icmp eq ptr %23, null
  br i1 %.not38, label %.thread, label %.preheader

.preheader:                                       ; preds = %21
  %25 = load i32, ptr %17, align 4
  %.not43 = icmp eq i32 %25, 0
  br i1 %.not43, label %.loopexit, label %.lr.ph

26:                                               ; preds = %.lr.ph
  %indvars.iv.next = add nuw nsw i64 %indvars.iv, 1
  %27 = load i32, ptr %17, align 4
  %28 = zext i32 %27 to i64
  %29 = icmp samesign ult i64 %indvars.iv.next, %28
  br i1 %29, label %.lr.ph, label %.loopexit, !llvm.loop !24

.lr.ph:                                           ; preds = %.preheader, %26
  %indvars.iv = phi i64 [ %indvars.iv.next, %26 ], [ 0, %.preheader ]
  %30 = load ptr, ptr %24, align 8
  %31 = getelementptr inbounds nuw i32, ptr %30, i64 %indvars.iv
  %32 = call i32 @slurm_unpack32(ptr noundef %31, ptr noundef %1) #10
  %.not39 = icmp eq i32 %32, 0
  br i1 %.not39, label %26, label %.thread

.loopexit:                                        ; preds = %26, %.preheader, %19
  store ptr %5, ptr %0, align 8
  br label %37

.thread:                                          ; preds = %.lr.ph, %21, %13, %16, %10, %7
  call void @llvm.lifetime.start.p0(i64 8, ptr nonnull %3)
  store ptr %5, ptr %3, align 8
  br label %34

33:                                               ; preds = %2
  call void @llvm.lifetime.start.p0(i64 8, ptr nonnull %3)
  store ptr %5, ptr %3, align 8
  %.not.i = icmp eq ptr %5, null
  br i1 %.not.i, label %spawn_resp_free.exit, label %34

34:                                               ; preds = %.thread, %33
  %35 = getelementptr inbounds nuw i8, ptr %5, i64 8
  call void @slurm_xfree(ptr noundef nonnull %35) #10
  %36 = getelementptr inbounds nuw i8, ptr %5, i64 24
  call void @slurm_xfree(ptr noundef nonnull %36) #10
  call void @slurm_xfree(ptr noundef nonnull %3) #10
  br label %spawn_resp_free.exit

spawn_resp_free.exit:                             ; preds = %33, %34
  call void @llvm.lifetime.end.p0(i64 8, ptr nonnull %3)
  br label %37

37:                                               ; preds = %spawn_resp_free.exit, %.loopexit
  %.0 = phi i32 [ -1, %spawn_resp_free.exit ], [ 0, %.loopexit ]
  ret i32 %.0
}